; Function Attrs: mustprogress nofree nounwind willreturn memory(read, inaccessiblemem: none) uwtable
define internal noundef i32 @_ZN6icu_77L21compareElementStringsEPKvS1_S1_(ptr noundef readonly captures(none) %0, ptr noundef readonly captures(none) %1, ptr noundef readonly captures(none) %2) #10 {
  %4 = load i32, ptr %1, align 4, !tbaa !17
  %5 = icmp sgt i32 %4, -1
  %6 = load ptr, ptr %0, align 8, !tbaa !3
  br i1 %5, label %7, label %13

7:                                                ; preds = %3
  %8 = add nuw nsw i32 %4, 1
  %9 = zext nneg i32 %4 to i64
  %10 = getelementptr inbounds nuw i8, ptr %6, i64 %9
  %11 = load i8, ptr %10, align 1, !tbaa !20
  %12 = zext i8 %11 to i32
  br label %_ZNK6icu_7716BytesTrieElement9getStringERKNS_10CharStringE.exit.i

13:                                               ; preds = %3
  %14 = xor i32 %4, -1
  %15 = zext nneg i32 %14 to i64
  %16 = getelementptr inbounds nuw i8, ptr %6, i64 %15
  %17 = load i8, ptr %16, align 1, !tbaa !20
  %18 = zext i8 %17 to i32
  %19 = shl nuw nsw i32 %18, 8
  %20 = sub nsw i32 0, %4
  %21 = zext nneg i32 %20 to i64
  %22 = getelementptr inbounds nuw i8, ptr %6, i64 %21
  %23 = load i8, ptr %22, align 1, !tbaa !20
  %24 = zext i8 %23 to i32
  %25 = or disjoint i32 %19, %24
  %26 = sub nsw i32 1, %4
  br label %_ZNK6icu_7716BytesTrieElement9getStringERKNS_10CharStringE.exit.i

_ZNK6icu_7716BytesTrieElement9getStringERKNS_10CharStringE.exit.i: ; preds = %13, %7
  %.012.i.i = phi i32 [ %8, %7 ], [ %26, %13 ]
  %.0.i.i = phi i32 [ %12, %7 ], [ %25, %13 ]
  %27 = load i32, ptr %2, align 4, !tbaa !17
  %28 = icmp sgt i32 %27, -1
  br i1 %28, label %29, label %35

29:                                               ; preds = %_ZNK6icu_7716BytesTrieElement9getStringERKNS_10CharStringE.exit.i
  %30 = add nuw nsw i32 %27, 1
  %31 = zext nneg i32 %27 to i64
  %32 = getelementptr inbounds nuw i8, ptr %6, i64 %31
  %33 = load i8, ptr %32, align 1, !tbaa !20
  %34 = zext i8 %33 to i32
  br label %_ZNK6icu_7716BytesTrieElement15compareStringToERKS0_RKNS_10CharStringE.exit

35:                                               ; preds = %_ZNK6icu_7716BytesTrieElement9getStringERKNS_10CharStringE.exit.i
  %36 = xor i32 %27, -1
  %37 = zext nneg i32 %36 to i64
  %38 = getelementptr inbounds nuw i8, ptr %6, i64 %37
  %39 = load i8, ptr %38, align 1, !tbaa !20
  %40 = zext i8 %39 to i32
  %41 = shl nuw nsw i32 %40, 8
  %42 = sub nsw i32 0, %27
  %43 = zext nneg i32 %42 to i64
  %44 = getelementptr inbounds nuw i8, ptr %6, i64 %43
  %45 = load i8, ptr %44, align 1, !tbaa !20
  %46 = zext i8 %45 to i32
  %47 = or disjoint i32 %41, %46
  %48 = sub nsw i32 1, %27
  br label %_ZNK6icu_7716BytesTrieElement15compareStringToERKS0_RKNS_10CharStringE.exit

_ZNK6icu_7716BytesTrieElement15compareStringToERKS0_RKNS_10CharStringE.exit: ; preds = %29, %35
  %.012.i12.i = phi i32 [ %30, %29 ], [ %48, %35 ]
  %.0.i13.i = phi i32 [ %34, %29 ], [ %47, %35 ]
  %49 = zext nneg i32 %.012.i.i to i64
  %50 = getelementptr inbounds nuw i8, ptr %6, i64 %49
  %51 = zext nneg i32 %.012.i12.i to i64
  %52 = getelementptr inbounds nuw i8, ptr %6, i64 %51
  %53 = sub nsw i32 %.0.i.i, %.0.i13.i
  %54 = icmp slt i32 %53, 1
  %spec.select.i = select i1 %54, i32 %.0.i.i, i32 %.0.i13.i
  %55 = zext nneg i32 %spec.select.i to i64
  %56 = tail call i32 @memcmp(ptr noundef nonnull %50, ptr noundef %52, i64 noundef %55) #22
  %.not.i = icmp eq i32 %56, 0
  %57 = select i1 %.not.i, i32 %53, i32 %56
  ret i32 %57
}